target datalayout = "e-m:e-p270:32:32-p271:32:32-p272:64:64-i64:64-i128:128-f80:128-n8:16:32:64-S128"
target triple = "x86_64-pc-linux-gnu"

%struct._GdkEventButton = type { i32, ptr, i8, i32, double, double, ptr, i32, i32, ptr, double, double }

@menu_right_pressed = internal global i8 0, align 1

; Function Attrs: nounwind uwtable
define internal i32 @_menu_button_released(ptr noundef %0, ptr noundef %1, ptr noundef %2) #0 {
  %4 = alloca i32, align 4
  %5 = alloca ptr, align 8
  %6 = alloca ptr, align 8
  %7 = alloca ptr, align 8
  store ptr %0, ptr %5, align 8
  store ptr %1, ptr %6, align 8
  store ptr %2, ptr %7, align 8
  %8 = load ptr, ptr %6, align 8
  %9 = getelementptr inbounds nuw %struct._GdkEventButton, ptr %8, i32 0, i32 8
  %10 = load i32, ptr %9, align 4
  %11 = icmp eq i32 %10, 3
  br i1 %11, label %12, label %16

12:                                               ; preds = %3
  %13 = load i8, ptr @menu_right_pressed, align 1, !range !23, !noundef !24
  %14 = trunc i8 %13 to i1
  br i1 %14, label %16, label %15

15:                                               ; preds = %12
  store i32 1, ptr %4, align 4
  br label %17

16:                                               ; preds = %12, %3
  store i8 0, ptr @menu_right_pressed, align 1
  store i32 0, ptr %4, align 4
  br label %17

17:                                               ; preds = %16, %15
  %18 = load i32, ptr %4, align 4
  ret i32 %18
}